

Microchip Technology PIC LITE Macro Assembler V2.00 build -1524193055 
                                                                                               Wed Nov 10 20:04:15 2021

Microchip Technology Omniscient Code Generator v2.00 (Free mode) build 20180527130849
     1  0000                     
      + 0000                     
     2                           ; Version 2.00
     3                           ; Generated 27/05/2018 GMT
     4                           
     5                           ; 
     6                           ; Copyright © 2018, Microchip Technology Inc. and its subsidiaries ("Microchip")
     7                           ; All rights reserved.
     8                           ; 
     9                           ; This software is developed by Microchip Technology Inc. and its subsidiaries ("Microch
                                 ip").
    10                           ; 
    11                           ; Redistribution and use in source and binary forms, with or without modification, are
    12                           ; permitted provided that the following conditions are met:
    13                           ; 
    14                           ;     1. Redistributions of source code must retain the above copyright notice, this lis
                                 t of
    15                           ;        conditions and the following disclaimer.
    16                           ; 
    17                           ;     2. Redistributions in binary form must reproduce the above copyright notice, this 
                                 list
    18                           ;        of conditions and the following disclaimer in the documentation and/or other
    19                           ;        materials provided with the distribution.
    20                           ; 
    21                           ;     3. Microchip's name may not be used to endorse or promote products derived from th
                                 is
    22                           ;        software without specific prior written permission.
    23                           ; 
    24                           ; THIS SOFTWARE IS PROVIDED BY MICROCHIP "AS IS" AND ANY EXPRESS OR IMPLIED WARRANTIES,

    25                           ; INCLUDING, BUT NOT LIMITED TO, THE IMPLIED WARRANTIES OF MERCHANTABILITY AND FITNESS F
                                 OR
    26                           ; PURPOSE ARE DISCLAIMED.  IN NO EVENT SHALL MICROCHIP BE LIABLE FOR ANY DIRECT, INDIREC
                                 T,
    27                           ; INCIDENTAL, SPECIAL, EXEMPLARY, OR CONSEQUENTIAL DAMAGES (INCLUDING BUT NOT LIMITED TO
                                 
    28                           ; PROCUREMENT OF SUBSTITUTE GOODS OR SERVICES; LOSS OF USE, DATA OR PROFITS; OR BUSINESS
                                 
    29                           ; INTERRUPTION) HOWSOEVER CAUSED AND ON ANY THEORY OF LIABILITY, WHETHER IN CONTRACT, ST
                                 RICT
    30                           ; LIABILITY, OR TORT (INCLUDING NEGLIGENCE OR OTHERWISE) ARISING IN ANY WAY OUT OF THE U
                                 SE OF
    31                           ; THIS SOFTWARE, EVEN IF ADVISED OF THE POSSIBILITY OF SUCH DAMAGE.
    32                           ; 
    33                           
    34                           
    35                           ; 
    36                           ; Code-generator required, PIC16F628A Definitions
    37                           ; 
    38  0004                     fsr0 equ 04h
    39  0004                     indf equ 00h
    40  0000                     indf0 equ 00h
    41  0000                     pc equ 02h
    42  0002                     pcl equ 02h
    43  0002                     pclath equ 0Ah
    44  000A                     status equ 03h
    45  0003                     
     2                           opt pagewidth 120
     3  0000                     byte0	macro	val
     4                           	(getbyte(val,0))
     5                           endm
     6  0000                     byte1	macro	val
     7                           	(getbyte(val,1))
     8                           endm
     9  0000                     byte2	macro	val
    10                           	(getbyte(val,2))
    11                           endm
    12  0000                     byte3	macro	val
    13                           	(getbyte(val,3))
    14                           endm
    15  0000                     byte4	macro	val
    16                           	(getbyte(val,4))
    17                           endm
    18  0000                     byte5	macro	val
    19                           	(getbyte(val,5))
    20                           endm
    21  0000                     byte6	macro	val
    22                           	(getbyte(val,6))
    23                           endm
    24  0000                     byte7	macro	val
    25                           	(getbyte(val,7))
    26                           endm
    27  0000                     getword	macro	val,pos
    28                           	(((val) >> (8 * pos)) and 0xffff)
    29                           endm
    30  0000                     word0	macro	val
    31                           	(getword(val,0))
    32                           endm
    33  0000                     word1	macro	val
    34                           	(getword(val,2))
    35                           endm
    36  0000                     word2	macro	val
    37                           	(getword(val,4))
    38                           endm
    39  0000                     word3	macro	val
    40                           	(getword(val,6))
    41                           endm
    42  0000                     gettword	macro	val,pos
    43                           	(((val) >> (8 * pos)) and 0xffffff)
    44                           endm
    45  0000                     tword0	macro	val
    46                           	(gettword(val,0))
    47                           endm
    48  0000                     tword1	macro	val
    49                           	(gettword(val,3))
    50                           endm
    51  0000                     tword2	macro	val
    52                           	(gettword(val,6))
    53                           endm
    54  0000                     getdword	macro	val,pos
    55                           	(((val) >> (8 * pos)) and 0xffffffff)
    56                           endm
    57  0000                     dword0	macro	val
    58                           	(getdword(val,0))
    59                           endm
    60  0000                     dword1	macro	val
    61                           	(getdword(val,4))
    62                           endm
    63  0000                     clrc	macro
    64                           	bcf	3,0
    65                           	endm
    66  0000                     clrz	macro
    67                           	bcf	3,2
    68                           	endm
    69  0000                     setc	macro
    70                           	bsf	3,0
    71                           	endm
    72  0000                     setz	macro
    73                           	bsf	3,2
    74                           	endm
    75  0000                     skipc	macro
    76                           	btfss	3,0
    77                           	endm
    78  0000                     skipz	macro
    79                           	btfss	3,2
    80                           	endm
    81  0000                     skipnc	macro
    82                           	btfsc	3,0
    83                           	endm
    84  0000                     skipnz	macro
    85                           	btfsc	3,2
    86                           	endm
    87  0000                     # 54 "C:\Program Files (x86)\Microchip\xc8\v2.00\pic\include\pic16f628a.h"
    88                           INDF equ 00h ;# 
    89  0000                     # 61 "C:\Program Files (x86)\Microchip\xc8\v2.00\pic\include\pic16f628a.h"
    90                           TMR0 equ 01h ;# 
    91  0001                     # 68 "C:\Program Files (x86)\Microchip\xc8\v2.00\pic\include\pic16f628a.h"
    92                           PCL equ 02h ;# 
    93  0002                     # 75 "C:\Program Files (x86)\Microchip\xc8\v2.00\pic\include\pic16f628a.h"
    94                           STATUS equ 03h ;# 
    95  0003                     # 161 "C:\Program Files (x86)\Microchip\xc8\v2.00\pic\include\pic16f628a.h"
    96                           FSR equ 04h ;# 
    97  0004                     # 168 "C:\Program Files (x86)\Microchip\xc8\v2.00\pic\include\pic16f628a.h"
    98                           PORTA equ 05h ;# 
    99  0005                     # 230 "C:\Program Files (x86)\Microchip\xc8\v2.00\pic\include\pic16f628a.h"
   100                           PORTB equ 06h ;# 
   101  0006                     # 292 "C:\Program Files (x86)\Microchip\xc8\v2.00\pic\include\pic16f628a.h"
   102                           PCLATH equ 0Ah ;# 
   103  000A                     # 312 "C:\Program Files (x86)\Microchip\xc8\v2.00\pic\include\pic16f628a.h"
   104                           INTCON equ 0Bh ;# 
   105  000B                     # 390 "C:\Program Files (x86)\Microchip\xc8\v2.00\pic\include\pic16f628a.h"
   106                           PIR1 equ 0Ch ;# 
   107  000C                     # 447 "C:\Program Files (x86)\Microchip\xc8\v2.00\pic\include\pic16f628a.h"
   108                           TMR1 equ 0Eh ;# 
   109  000E                     # 454 "C:\Program Files (x86)\Microchip\xc8\v2.00\pic\include\pic16f628a.h"
   110                           TMR1L equ 0Eh ;# 
   111  000E                     # 461 "C:\Program Files (x86)\Microchip\xc8\v2.00\pic\include\pic16f628a.h"
   112                           TMR1H equ 0Fh ;# 
   113  000F                     # 468 "C:\Program Files (x86)\Microchip\xc8\v2.00\pic\include\pic16f628a.h"
   114                           T1CON equ 010h ;# 
   115  0010                     # 527 "C:\Program Files (x86)\Microchip\xc8\v2.00\pic\include\pic16f628a.h"
   116                           TMR2 equ 011h ;# 
   117  0011                     # 534 "C:\Program Files (x86)\Microchip\xc8\v2.00\pic\include\pic16f628a.h"
   118                           T2CON equ 012h ;# 
   119  0012                     # 605 "C:\Program Files (x86)\Microchip\xc8\v2.00\pic\include\pic16f628a.h"
   120                           CCPR1 equ 015h ;# 
   121  0015                     # 612 "C:\Program Files (x86)\Microchip\xc8\v2.00\pic\include\pic16f628a.h"
   122                           CCPR1L equ 015h ;# 
   123  0015                     # 619 "C:\Program Files (x86)\Microchip\xc8\v2.00\pic\include\pic16f628a.h"
   124                           CCPR1H equ 016h ;# 
   125  0016                     # 626 "C:\Program Files (x86)\Microchip\xc8\v2.00\pic\include\pic16f628a.h"
   126                           CCP1CON equ 017h ;# 
   127  0017                     # 684 "C:\Program Files (x86)\Microchip\xc8\v2.00\pic\include\pic16f628a.h"
   128                           RCSTA equ 018h ;# 
   129  0018                     # 755 "C:\Program Files (x86)\Microchip\xc8\v2.00\pic\include\pic16f628a.h"
   130                           TXREG equ 019h ;# 
   131  0019                     # 762 "C:\Program Files (x86)\Microchip\xc8\v2.00\pic\include\pic16f628a.h"
   132                           RCREG equ 01Ah ;# 
   133  001A                     # 769 "C:\Program Files (x86)\Microchip\xc8\v2.00\pic\include\pic16f628a.h"
   134                           CMCON equ 01Fh ;# 
   135  001F                     # 839 "C:\Program Files (x86)\Microchip\xc8\v2.00\pic\include\pic16f628a.h"
   136                           OPTION_REG equ 081h ;# 
   137  0081                     # 909 "C:\Program Files (x86)\Microchip\xc8\v2.00\pic\include\pic16f628a.h"
   138                           TRISA equ 085h ;# 
   139  0085                     # 971 "C:\Program Files (x86)\Microchip\xc8\v2.00\pic\include\pic16f628a.h"
   140                           TRISB equ 086h ;# 
   141  0086                     # 1033 "C:\Program Files (x86)\Microchip\xc8\v2.00\pic\include\pic16f628a.h"
   142                           PIE1 equ 08Ch ;# 
   143  008C                     # 1090 "C:\Program Files (x86)\Microchip\xc8\v2.00\pic\include\pic16f628a.h"
   144                           PCON equ 08Eh ;# 
   145  008E                     # 1139 "C:\Program Files (x86)\Microchip\xc8\v2.00\pic\include\pic16f628a.h"
   146                           PR2 equ 092h ;# 
   147  0092                     # 1146 "C:\Program Files (x86)\Microchip\xc8\v2.00\pic\include\pic16f628a.h"
   148                           TXSTA equ 098h ;# 
   149  0098                     # 1203 "C:\Program Files (x86)\Microchip\xc8\v2.00\pic\include\pic16f628a.h"
   150                           SPBRG equ 099h ;# 
   151  0099                     # 1210 "C:\Program Files (x86)\Microchip\xc8\v2.00\pic\include\pic16f628a.h"
   152                           EEDATA equ 09Ah ;# 
   153  009A                     # 1217 "C:\Program Files (x86)\Microchip\xc8\v2.00\pic\include\pic16f628a.h"
   154                           EEADR equ 09Bh ;# 
   155  009B                     # 1224 "C:\Program Files (x86)\Microchip\xc8\v2.00\pic\include\pic16f628a.h"
   156                           EECON1 equ 09Ch ;# 
   157  009C                     # 1262 "C:\Program Files (x86)\Microchip\xc8\v2.00\pic\include\pic16f628a.h"
   158                           EECON2 equ 09Dh ;# 
   159  009D                     # 1269 "C:\Program Files (x86)\Microchip\xc8\v2.00\pic\include\pic16f628a.h"
   160                           VRCON equ 09Fh ;# 
   161  009F                     # 54 "C:\Program Files (x86)\Microchip\xc8\v2.00\pic\include\pic16f628a.h"
   162                           INDF equ 00h ;# 
   163  0000                     # 61 "C:\Program Files (x86)\Microchip\xc8\v2.00\pic\include\pic16f628a.h"
   164                           TMR0 equ 01h ;# 
   165  0001                     # 68 "C:\Program Files (x86)\Microchip\xc8\v2.00\pic\include\pic16f628a.h"
   166                           PCL equ 02h ;# 
   167  0002                     # 75 "C:\Program Files (x86)\Microchip\xc8\v2.00\pic\include\pic16f628a.h"
   168                           STATUS equ 03h ;# 
   169  0003                     # 161 "C:\Program Files (x86)\Microchip\xc8\v2.00\pic\include\pic16f628a.h"
   170                           FSR equ 04h ;# 
   171  0004                     # 168 "C:\Program Files (x86)\Microchip\xc8\v2.00\pic\include\pic16f628a.h"
   172                           PORTA equ 05h ;# 
   173  0005                     # 230 "C:\Program Files (x86)\Microchip\xc8\v2.00\pic\include\pic16f628a.h"
   174                           PORTB equ 06h ;# 
   175  0006                     # 292 "C:\Program Files (x86)\Microchip\xc8\v2.00\pic\include\pic16f628a.h"
   176                           PCLATH equ 0Ah ;# 
   177  000A                     # 312 "C:\Program Files (x86)\Microchip\xc8\v2.00\pic\include\pic16f628a.h"
   178                           INTCON equ 0Bh ;# 
   179  000B                     # 390 "C:\Program Files (x86)\Microchip\xc8\v2.00\pic\include\pic16f628a.h"
   180                           PIR1 equ 0Ch ;# 
   181  000C                     # 447 "C:\Program Files (x86)\Microchip\xc8\v2.00\pic\include\pic16f628a.h"
   182                           TMR1 equ 0Eh ;# 
   183  000E                     # 454 "C:\Program Files (x86)\Microchip\xc8\v2.00\pic\include\pic16f628a.h"
   184                           TMR1L equ 0Eh ;# 
   185  000E                     # 461 "C:\Program Files (x86)\Microchip\xc8\v2.00\pic\include\pic16f628a.h"
   186                           TMR1H equ 0Fh ;# 
   187  000F                     # 468 "C:\Program Files (x86)\Microchip\xc8\v2.00\pic\include\pic16f628a.h"
   188                           T1CON equ 010h ;# 
   189  0010                     # 527 "C:\Program Files (x86)\Microchip\xc8\v2.00\pic\include\pic16f628a.h"
   190                           TMR2 equ 011h ;# 
   191  0011                     # 534 "C:\Program Files (x86)\Microchip\xc8\v2.00\pic\include\pic16f628a.h"
   192                           T2CON equ 012h ;# 
   193  0012                     # 605 "C:\Program Files (x86)\Microchip\xc8\v2.00\pic\include\pic16f628a.h"
   194                           CCPR1 equ 015h ;# 
   195  0015                     # 612 "C:\Program Files (x86)\Microchip\xc8\v2.00\pic\include\pic16f628a.h"
   196                           CCPR1L equ 015h ;# 
   197  0015                     # 619 "C:\Program Files (x86)\Microchip\xc8\v2.00\pic\include\pic16f628a.h"
   198                           CCPR1H equ 016h ;# 
   199  0016                     # 626 "C:\Program Files (x86)\Microchip\xc8\v2.00\pic\include\pic16f628a.h"
   200                           CCP1CON equ 017h ;# 
   201  0017                     # 684 "C:\Program Files (x86)\Microchip\xc8\v2.00\pic\include\pic16f628a.h"
   202                           RCSTA equ 018h ;# 
   203  0018                     # 755 "C:\Program Files (x86)\Microchip\xc8\v2.00\pic\include\pic16f628a.h"
   204                           TXREG equ 019h ;# 
   205  0019                     # 762 "C:\Program Files (x86)\Microchip\xc8\v2.00\pic\include\pic16f628a.h"
   206                           RCREG equ 01Ah ;# 
   207  001A                     # 769 "C:\Program Files (x86)\Microchip\xc8\v2.00\pic\include\pic16f628a.h"
   208                           CMCON equ 01Fh ;# 
   209  001F                     # 839 "C:\Program Files (x86)\Microchip\xc8\v2.00\pic\include\pic16f628a.h"
   210                           OPTION_REG equ 081h ;# 
   211  0081                     # 909 "C:\Program Files (x86)\Microchip\xc8\v2.00\pic\include\pic16f628a.h"
   212                           TRISA equ 085h ;# 
   213  0085                     # 971 "C:\Program Files (x86)\Microchip\xc8\v2.00\pic\include\pic16f628a.h"
   214                           TRISB equ 086h ;# 
   215  0086                     # 1033 "C:\Program Files (x86)\Microchip\xc8\v2.00\pic\include\pic16f628a.h"
   216                           PIE1 equ 08Ch ;# 
   217  008C                     # 1090 "C:\Program Files (x86)\Microchip\xc8\v2.00\pic\include\pic16f628a.h"
   218                           PCON equ 08Eh ;# 
   219  008E                     # 1139 "C:\Program Files (x86)\Microchip\xc8\v2.00\pic\include\pic16f628a.h"
   220                           PR2 equ 092h ;# 
   221  0092                     # 1146 "C:\Program Files (x86)\Microchip\xc8\v2.00\pic\include\pic16f628a.h"
   222                           TXSTA equ 098h ;# 
   223  0098                     # 1203 "C:\Program Files (x86)\Microchip\xc8\v2.00\pic\include\pic16f628a.h"
   224                           SPBRG equ 099h ;# 
   225  0099                     # 1210 "C:\Program Files (x86)\Microchip\xc8\v2.00\pic\include\pic16f628a.h"
   226                           EEDATA equ 09Ah ;# 
   227  009A                     # 1217 "C:\Program Files (x86)\Microchip\xc8\v2.00\pic\include\pic16f628a.h"
   228                           EEADR equ 09Bh ;# 
   229  009B                     # 1224 "C:\Program Files (x86)\Microchip\xc8\v2.00\pic\include\pic16f628a.h"
   230                           EECON1 equ 09Ch ;# 
   231  009C                     # 1262 "C:\Program Files (x86)\Microchip\xc8\v2.00\pic\include\pic16f628a.h"
   232                           EECON2 equ 09Dh ;# 
   233  009D                     # 1269 "C:\Program Files (x86)\Microchip\xc8\v2.00\pic\include\pic16f628a.h"
   234                           VRCON equ 09Fh ;# 
   235  009F                     # 54 "C:\Program Files (x86)\Microchip\xc8\v2.00\pic\include\pic16f628a.h"
   236                           INDF equ 00h ;# 
   237  0000                     # 61 "C:\Program Files (x86)\Microchip\xc8\v2.00\pic\include\pic16f628a.h"
   238                           TMR0 equ 01h ;# 
   239  0001                     # 68 "C:\Program Files (x86)\Microchip\xc8\v2.00\pic\include\pic16f628a.h"
   240                           PCL equ 02h ;# 
   241  0002                     # 75 "C:\Program Files (x86)\Microchip\xc8\v2.00\pic\include\pic16f628a.h"
   242                           STATUS equ 03h ;# 
   243  0003                     # 161 "C:\Program Files (x86)\Microchip\xc8\v2.00\pic\include\pic16f628a.h"
   244                           FSR equ 04h ;# 
   245  0004                     # 168 "C:\Program Files (x86)\Microchip\xc8\v2.00\pic\include\pic16f628a.h"
   246                           PORTA equ 05h ;# 
   247  0005                     # 230 "C:\Program Files (x86)\Microchip\xc8\v2.00\pic\include\pic16f628a.h"
   248                           PORTB equ 06h ;# 
   249  0006                     # 292 "C:\Program Files (x86)\Microchip\xc8\v2.00\pic\include\pic16f628a.h"
   250                           PCLATH equ 0Ah ;# 
   251  000A                     # 312 "C:\Program Files (x86)\Microchip\xc8\v2.00\pic\include\pic16f628a.h"
   252                           INTCON equ 0Bh ;# 
   253  000B                     # 390 "C:\Program Files (x86)\Microchip\xc8\v2.00\pic\include\pic16f628a.h"
   254                           PIR1 equ 0Ch ;# 
   255  000C                     # 447 "C:\Program Files (x86)\Microchip\xc8\v2.00\pic\include\pic16f628a.h"
   256                           TMR1 equ 0Eh ;# 
   257  000E                     # 454 "C:\Program Files (x86)\Microchip\xc8\v2.00\pic\include\pic16f628a.h"
   258                           TMR1L equ 0Eh ;# 
   259  000E                     # 461 "C:\Program Files (x86)\Microchip\xc8\v2.00\pic\include\pic16f628a.h"
   260                           TMR1H equ 0Fh ;# 
   261  000F                     # 468 "C:\Program Files (x86)\Microchip\xc8\v2.00\pic\include\pic16f628a.h"
   262                           T1CON equ 010h ;# 
   263  0010                     # 527 "C:\Program Files (x86)\Microchip\xc8\v2.00\pic\include\pic16f628a.h"
   264                           TMR2 equ 011h ;# 
   265  0011                     # 534 "C:\Program Files (x86)\Microchip\xc8\v2.00\pic\include\pic16f628a.h"
   266                           T2CON equ 012h ;# 
   267  0012                     # 605 "C:\Program Files (x86)\Microchip\xc8\v2.00\pic\include\pic16f628a.h"
   268                           CCPR1 equ 015h ;# 
   269  0015                     # 612 "C:\Program Files (x86)\Microchip\xc8\v2.00\pic\include\pic16f628a.h"
   270                           CCPR1L equ 015h ;# 
   271  0015                     # 619 "C:\Program Files (x86)\Microchip\xc8\v2.00\pic\include\pic16f628a.h"
   272                           CCPR1H equ 016h ;# 
   273  0016                     # 626 "C:\Program Files (x86)\Microchip\xc8\v2.00\pic\include\pic16f628a.h"
   274                           CCP1CON equ 017h ;# 
   275  0017                     # 684 "C:\Program Files (x86)\Microchip\xc8\v2.00\pic\include\pic16f628a.h"
   276                           RCSTA equ 018h ;# 
   277  0018                     # 755 "C:\Program Files (x86)\Microchip\xc8\v2.00\pic\include\pic16f628a.h"
   278                           TXREG equ 019h ;# 
   279  0019                     # 762 "C:\Program Files (x86)\Microchip\xc8\v2.00\pic\include\pic16f628a.h"
   280                           RCREG equ 01Ah ;# 
   281  001A                     # 769 "C:\Program Files (x86)\Microchip\xc8\v2.00\pic\include\pic16f628a.h"
   282                           CMCON equ 01Fh ;# 
   283  001F                     # 839 "C:\Program Files (x86)\Microchip\xc8\v2.00\pic\include\pic16f628a.h"
   284                           OPTION_REG equ 081h ;# 
   285  0081                     # 909 "C:\Program Files (x86)\Microchip\xc8\v2.00\pic\include\pic16f628a.h"
   286                           TRISA equ 085h ;# 
   287  0085                     # 971 "C:\Program Files (x86)\Microchip\xc8\v2.00\pic\include\pic16f628a.h"
   288                           TRISB equ 086h ;# 
   289  0086                     # 1033 "C:\Program Files (x86)\Microchip\xc8\v2.00\pic\include\pic16f628a.h"
   290                           PIE1 equ 08Ch ;# 
   291  008C                     # 1090 "C:\Program Files (x86)\Microchip\xc8\v2.00\pic\include\pic16f628a.h"
   292                           PCON equ 08Eh ;# 
   293  008E                     # 1139 "C:\Program Files (x86)\Microchip\xc8\v2.00\pic\include\pic16f628a.h"
   294                           PR2 equ 092h ;# 
   295  0092                     # 1146 "C:\Program Files (x86)\Microchip\xc8\v2.00\pic\include\pic16f628a.h"
   296                           TXSTA equ 098h ;# 
   297  0098                     # 1203 "C:\Program Files (x86)\Microchip\xc8\v2.00\pic\include\pic16f628a.h"
   298                           SPBRG equ 099h ;# 
   299  0099                     # 1210 "C:\Program Files (x86)\Microchip\xc8\v2.00\pic\include\pic16f628a.h"
   300                           EEDATA equ 09Ah ;# 
   301  009A                     # 1217 "C:\Program Files (x86)\Microchip\xc8\v2.00\pic\include\pic16f628a.h"
   302                           EEADR equ 09Bh ;# 
   303  009B                     # 1224 "C:\Program Files (x86)\Microchip\xc8\v2.00\pic\include\pic16f628a.h"
   304                           EECON1 equ 09Ch ;# 
   305  009C                     # 1262 "C:\Program Files (x86)\Microchip\xc8\v2.00\pic\include\pic16f628a.h"
   306                           EECON2 equ 09Dh ;# 
   307  009D                     # 1269 "C:\Program Files (x86)\Microchip\xc8\v2.00\pic\include\pic16f628a.h"
   308                           VRCON equ 09Fh ;# 
   309  009F                     	FNCALL	_main,_ConfiguracionInicial
   310                           	FNCALL	_main,_loop
   311                           	FNCALL	_main,_setup
   312                           	FNCALL	_setup,_pinMode
   313                           	FNCALL	_loop,_delay
   314                           	FNCALL	_loop,_digitalWrite
   315                           	FNROOT	_main
   316                           	global	_LED
   317                           psect	strings,class=STRING,delta=2,noexec
   318                           global __pstrings
   319                           __pstrings:
   320  001D                     stringtab:
   321  001D                     	global    __stringtab
   322                           __stringtab:
   323  001D                     ;	String table - string pointers are 1 byte each
   324                           stringcode:stringdir:
   325  001D                     movlw high(stringdir)
      + 001D                     stringdir:	
   326  001D  3000               movwf pclath
   327  001E  008A               movf fsr,w
   328  001F  0804               incf fsr
   329  0020  0A84               	addwf pc
   330  0021  0782               	global __stringbase
   331                           __stringbase:
   332  0022                     	retlw	0
   333  0022  3400               psect	strings
   334                           	global    __end_of__stringtab
   335                           __end_of__stringtab:
   336  0023                     	file	"application.c"
   337                           	line	3
   338                           _LED:
   339  0023                     	retlw	0Dh
   340  0023  340D               	global __end_of_LED
   341                           __end_of_LED:
   342  0024                     	global	_LED
   343                           	global	_RCREG
   344                           _RCREG	set	0x1A
   345  001A                     	global	_TXREG
   346                           _TXREG	set	0x19
   347  0019                     	global	_PORTBbits
   348                           _PORTBbits	set	0x6
   349  0006                     	global	_PORTAbits
   350                           _PORTAbits	set	0x5
   351  0005                     	global	_T2CON
   352                           _T2CON	set	0x12
   353  0012                     	global	_CCPR1L
   354                           _CCPR1L	set	0x15
   355  0015                     	global	_CCP1CON
   356                           _CCP1CON	set	0x17
   357  0017                     	global	_RCIF
   358                           _RCIF	set	0x65
   359  0065                     	global	_TXIF
   360                           _TXIF	set	0x64
   361  0064                     	global	_CREN
   362                           _CREN	set	0xC4
   363  00C4                     	global	_SPEN
   364                           _SPEN	set	0xC7
   365  00C7                     	global	_SPBRG
   366                           _SPBRG	set	0x99
   367  0099                     	global	_TRISBbits
   368                           _TRISBbits	set	0x86
   369  0086                     	global	_TRISAbits
   370                           _TRISAbits	set	0x85
   371  0085                     	global	_PR2
   372                           _PR2	set	0x92
   373  0092                     	global	_TRMT
   374                           _TRMT	set	0x4C1
   375  04C1                     	global	_TXEN
   376                           _TXEN	set	0x4C5
   377  04C5                     	global	_TRISB1
   378                           _TRISB1	set	0x431
   379  0431                     	global	_TRISB2
   380                           _TRISB2	set	0x432
   381  0432                     	global	_SYNC
   382                           _SYNC	set	0x4C4
   383  04C4                     	global	_BRGH
   384                           _BRGH	set	0x4C2
   385  04C2                     ; #config settings
   386                           global __CFG_FOSC$INTOSCIO
   387                           __CFG_FOSC$INTOSCIO equ 0x0
   388  0000                     global __CFG_WDTE$OFF
   389                           __CFG_WDTE$OFF equ 0x0
   390  0000                     global __CFG_PWRTE$OFF
   391                           __CFG_PWRTE$OFF equ 0x0
   392  0000                     global __CFG_MCLRE$ON
   393                           __CFG_MCLRE$ON equ 0x0
   394  0000                     global __CFG_BOREN$OFF
   395                           __CFG_BOREN$OFF equ 0x0
   396  0000                     global __CFG_LVP$OFF
   397                           __CFG_LVP$OFF equ 0x0
   398  0000                     global __CFG_CPD$OFF
   399                           __CFG_CPD$OFF equ 0x0
   400  0000                     global __CFG_CP$OFF
   401                           __CFG_CP$OFF equ 0x0
   402  0000                     	file	"C:\Users\TONCHE~1\AppData\Local\Temp\sbbg."
   403                           	line	#
   404                           psect cinit,class=CODE,delta=2
   405                           global start_initialization
   406                           start_initialization:
   407  07FE                     
   408                           global __initialization
   409                           __initialization:
   410  07FE                     psect cinit,class=CODE,delta=2,merge=1
   411                           global end_of_initialization,__end_of__initialization
   412                           
   413                           ;End of C runtime variable initialization code
   414                           
   415                           end_of_initialization:
   416  07FE                     __end_of__initialization:
   417  07FE                     clrf status
   418  07FE  0183               ljmp _main	;jump to C main() function
   419  07FF  2EA9               psect	cstackCOMMON,class=COMMON,space=1,noexec
   420                           global __pcstackCOMMON
   421                           __pcstackCOMMON:
   422  0070                     ?_ConfiguracionInicial:	; 1 bytes @ 0x0
   423  0070                     ??_ConfiguracionInicial:	; 1 bytes @ 0x0
   424  0070                     ?_setup:	; 1 bytes @ 0x0
   425  0070                     ?_loop:	; 1 bytes @ 0x0
   426  0070                     ?_pinMode:	; 1 bytes @ 0x0
   427  0070                     ?_digitalWrite:	; 1 bytes @ 0x0
   428  0070                     ?_delay:	; 1 bytes @ 0x0
   429  0070                     ?_main:	; 2 bytes @ 0x0
   430  0070                     	global	pinMode@dir
   431                           pinMode@dir:	; 1 bytes @ 0x0
   432  0070                     	global	digitalWrite@value
   433                           digitalWrite@value:	; 1 bytes @ 0x0
   434  0070                     	global	delay@millis
   435                           delay@millis:	; 2 bytes @ 0x0
   436  0070                     	ds	1
   437  0070                     ??_pinMode:	; 1 bytes @ 0x1
   438  0071                     ??_digitalWrite:	; 1 bytes @ 0x1
   439  0071                     	ds	1
   440  0071                     ??_delay:	; 1 bytes @ 0x2
   441  0072                     	ds	1
   442  0072                     	global	pinMode@pin
   443                           pinMode@pin:	; 1 bytes @ 0x3
   444  0073                     	global	digitalWrite@pin
   445                           digitalWrite@pin:	; 1 bytes @ 0x3
   446  0073                     	global	delay@i
   447                           delay@i:	; 1 bytes @ 0x3
   448  0073                     	ds	1
   449  0073                     ??_setup:	; 1 bytes @ 0x4
   450  0074                     ??_loop:	; 1 bytes @ 0x4
   451  0074                     ??_main:	; 1 bytes @ 0x4
   452  0074                     ;!
   453                           ;!Data Sizes:
   454                           ;!    Strings     0
   455                           ;!    Constant    1
   456                           ;!    Data        0
   457                           ;!    BSS         0
   458                           ;!    Persistent  0
   459                           ;!    Stack       0
   460                           ;!
   461                           ;!Auto Spaces:
   462                           ;!    Space          Size  Autos    Used
   463                           ;!    COMMON           14      4       4
   464                           ;!    BANK0            80      0       0
   465                           ;!    BANK1            80      0       0
   466                           ;!    BANK2            48      0       0
   467                           
   468                           ;!
   469                           ;!Pointer List with Targets:
   470                           ;!
   471                           ;!    None.
   472                           
   473                           
   474                           ;!
   475                           ;!Critical Paths under _main in COMMON
   476                           ;!
   477                           ;!    _setup->_pinMode
   478                           ;!    _loop->_delay
   479                           ;!    _loop->_digitalWrite
   480                           ;!
   481                           ;!Critical Paths under _main in BANK0
   482                           ;!
   483                           ;!    None.
   484                           ;!
   485                           ;!Critical Paths under _main in BANK1
   486                           ;!
   487                           ;!    None.
   488                           ;!
   489                           ;!Critical Paths under _main in BANK2
   490                           ;!
   491                           ;!    None.
   492                           
   493 ;;
   494 ;;Main: autosize = 0, tempsize = 0, incstack = 0, save=0
   495 ;;
   496                           
   497                           ;!
   498                           ;!Call Graph Tables:
   499                           ;!
   500                           ;! ---------------------------------------------------------------------------------
   501                           ;! (Depth) Function   	        Calls       Base Space   Used Autos Params    Refs
   502                           ;! ---------------------------------------------------------------------------------
   503                           ;! (0) _main                                                 0     0      0    1086
   504                           ;!               _ConfiguracionInicial
   505                           ;!                               _loop
   506                           ;!                              _setup
   507                           ;! ---------------------------------------------------------------------------------
   508                           ;! (1) _setup                                                0     0      0     406
   509                           ;!                            _pinMode
   510                           ;! ---------------------------------------------------------------------------------
   511                           ;! (2) _pinMode                                              4     3      1     406
   512                           ;!                                              0 COMMON     4     3      1
   513                           ;! ---------------------------------------------------------------------------------
   514                           ;! (1) _loop                                                 0     0      0     680
   515                           ;!                              _delay
   516                           ;!                       _digitalWrite
   517                           ;! ---------------------------------------------------------------------------------
   518                           ;! (2) _digitalWrite                                         4     3      1     482
   519                           ;!                                              0 COMMON     4     3      1
   520                           ;! ---------------------------------------------------------------------------------
   521                           ;! (2) _delay                                                4     2      2     198
   522                           ;!                                              0 COMMON     4     2      2
   523                           ;! ---------------------------------------------------------------------------------
   524                           ;! (1) _ConfiguracionInicial                                 0     0      0       0
   525                           ;! ---------------------------------------------------------------------------------
   526                           ;! Estimated maximum stack depth 2
   527                           ;! ---------------------------------------------------------------------------------
   528                           ;!
   529                           ;! Call Graph Graphs:
   530                           ;!
   531                           ;! _main (ROOT)
   532                           ;!   _ConfiguracionInicial
   533                           ;!   _loop
   534                           ;!     _delay
   535                           ;!     _digitalWrite
   536                           ;!   _setup
   537                           ;!     _pinMode
   538                           ;!
   539                           
   540                           ;! Address spaces:
   541                           
   542                           ;!Name               Size   Autos  Total    Cost      Usage
   543                           ;!BITCOMMON            E      0       0       0        0.0%
   544                           ;!EEDATA              80      0       0       0        0.0%
   545                           ;!NULL                 0      0       0       0        0.0%
   546                           ;!CODE                 0      0       0       0        0.0%
   547                           ;!COMMON               E      4       4       1       28.6%
   548                           ;!BITSFR0              0      0       0       1        0.0%
   549                           ;!SFR0                 0      0       0       1        0.0%
   550                           ;!BITSFR1              0      0       0       2        0.0%
   551                           ;!SFR1                 0      0       0       2        0.0%
   552                           ;!STACK                0      0       0       2        0.0%
   553                           ;!BANK0               50      0       0       3        0.0%
   554                           ;!BITSFR3              0      0       0       4        0.0%
   555                           ;!SFR3                 0      0       0       4        0.0%
   556                           ;!ABS                  0      0       0       4        0.0%
   557                           ;!BITBANK0            50      0       0       5        0.0%
   558                           ;!BITSFR2              0      0       0       5        0.0%
   559                           ;!SFR2                 0      0       0       5        0.0%
   560                           ;!BITBANK1            50      0       0       6        0.0%
   561                           ;!BANK1               50      0       0       7        0.0%
   562                           ;!BITBANK2            30      0       0       8        0.0%
   563                           ;!BANK2               30      0       0       9        0.0%
   564                           ;!DATA                 0      0       0      10        0.0%
   565                           
   566                           	global	_main
   567                           
   568 ;; *************** function _main *****************
   569 ;; Defined at:
   570 ;;		line 3 in file "H628A.c"
   571 ;; Parameters:    Size  Location     Type
   572 ;;		None
   573 ;; Auto vars:     Size  Location     Type
   574 ;;		None
   575 ;; Return value:  Size  Location     Type
   576 ;;                  2   52[None  ] int 
   577 ;; Registers used:
   578 ;;		wreg, fsr0l, fsr0h, status,2, status,0, pclath, cstack
   579 ;; Tracked objects:
   580 ;;		On entry : B00/0
   581 ;;		On exit  : 0/0
   582 ;;		Unchanged: 0/0
   583 ;; Data sizes:     COMMON   BANK0   BANK1   BANK2
   584 ;;      Params:         0       0       0       0
   585 ;;      Locals:         0       0       0       0
   586 ;;      Temps:          0       0       0       0
   587 ;;      Totals:         0       0       0       0
   588 ;;Total ram usage:        0 bytes
   589 ;; Hardware stack levels required when called:    2
   590 ;; This function calls:
   591 ;;		_ConfiguracionInicial
   592 ;;		_loop
   593 ;;		_setup
   594 ;; This function is called by:
   595 ;;		Startup code after reset
   596 ;; This function uses a non-reentrant model
   597 ;;
   598                           psect	maintext,global,class=CODE,delta=2,split=1,group=0
   599                           	file	"H628A.c"
   600                           	line	3
   601                           global __pmaintext
   602                           __pmaintext:	;psect for function _main
   603  06A9                     psect	maintext
   604                           	file	"H628A.c"
   605                           	line	3
   606                           	global	__size_of_main
   607                           	__size_of_main	equ	__end_of_main-_main
   608  0006                     	
   609                           _main:	
   610  06A9                     ;incstack = 0
   611                           	opt	stack 6
   612                           ; Regs used in _main: [wreg-fsr0h+status,2+status,0+pclath+cstack]
   613                           	line	5
   614                           	
   615                           l1252:	
   616  06A9                     ;H628A.c: 5:     ConfiguracionInicial();
   617                           	fcall	_ConfiguracionInicial
   618  06A9  26AF               	line	6
   619                           	
   620                           l1254:	
   621  06AA                     ;H628A.c: 6:     setup();
   622                           	fcall	_setup
   623  06AA  26A3               	goto	l1256
   624  06AB  2EAC               	line	7
   625                           ;H628A.c: 7:     for(;;)
   626                           	
   627                           l53:	
   628  06AC                     	line	9
   629                           	
   630                           l1256:	
   631  06AC                     ;H628A.c: 8:     {;H628A.c: 9:         loop();
   632                           	fcall	_loop
   633  06AC  26BD               	line	10
   634                           ;H628A.c: 10:     }
   635                           	goto	l1256
   636  06AD  2EAC               	
   637                           l54:	
   638  06AE                     	line	12
   639                           ;H628A.c: 11:     return 0;;	Return value of _main is never used
   640                           	
   641                           l55:	
   642  06AE                     	global	start
   643                           	ljmp	start
   644  06AE  2800               	opt stack 0
   645                           GLOBAL	__end_of_main
   646                           	__end_of_main:
   647  06AF                     	signat	_main,90
   648                           	global	_setup
   649                           
   650 ;; *************** function _setup *****************
   651 ;; Defined at:
   652 ;;		line 5 in file "application.c"
   653 ;; Parameters:    Size  Location     Type
   654 ;;		None
   655 ;; Auto vars:     Size  Location     Type
   656 ;;		None
   657 ;; Return value:  Size  Location     Type
   658 ;;                  1    wreg      void 
   659 ;; Registers used:
   660 ;;		wreg, fsr0l, fsr0h, status,2, status,0, pclath, cstack
   661 ;; Tracked objects:
   662 ;;		On entry : 0/0
   663 ;;		On exit  : 0/0
   664 ;;		Unchanged: 0/0
   665 ;; Data sizes:     COMMON   BANK0   BANK1   BANK2
   666 ;;      Params:         0       0       0       0
   667 ;;      Locals:         0       0       0       0
   668 ;;      Temps:          0       0       0       0
   669 ;;      Totals:         0       0       0       0
   670 ;;Total ram usage:        0 bytes
   671 ;; Hardware stack levels used:    1
   672 ;; Hardware stack levels required when called:    1
   673 ;; This function calls:
   674 ;;		_pinMode
   675 ;; This function is called by:
   676 ;;		_main
   677 ;; This function uses a non-reentrant model
   678 ;;
   679                           psect	text1,local,class=CODE,delta=2,merge=1,group=0
   680                           	file	"application.c"
   681                           	line	5
   682                           global __ptext1
   683                           __ptext1:	;psect for function _setup
   684  06A3                     psect	text1
   685                           	file	"application.c"
   686                           	line	5
   687                           	global	__size_of_setup
   688                           	__size_of_setup	equ	__end_of_setup-_setup
   689  0006                     	
   690                           _setup:	
   691  06A3                     ;incstack = 0
   692                           	opt	stack 6
   693                           ; Regs used in _setup: [wreg-fsr0h+status,2+status,0+pclath+cstack]
   694                           	line	7
   695                           	
   696                           l1244:	
   697  06A3                     ;application.c: 7:     pinMode(LED,0);
   698                           	clrf	(pinMode@dir)
   699  06A3  01F0               	movlw	low((_LED-__stringbase))
   700  06A4  3001               	movwf	fsr0
   701  06A5  0084               	fcall	stringdir
   702  06A6  201D               	fcall	_pinMode
   703  06A7  2777               	line	8
   704                           	
   705                           l186:	
   706  06A8                     	return
   707  06A8  0008               	opt stack 0
   708                           GLOBAL	__end_of_setup
   709                           	__end_of_setup:
   710  06A9                     	signat	_setup,89
   711                           	global	_pinMode
   712                           
   713 ;; *************** function _pinMode *****************
   714 ;; Defined at:
   715 ;;		line 25 in file "H628A.c"
   716 ;; Parameters:    Size  Location     Type
   717 ;;  pin             1    wreg     unsigned char 
   718 ;;  dir             1    0[COMMON] unsigned char 
   719 ;; Auto vars:     Size  Location     Type
   720 ;;  pin             1    3[COMMON] unsigned char 
   721 ;; Return value:  Size  Location     Type
   722 ;;                  1    wreg      void 
   723 ;; Registers used:
   724 ;;		wreg, fsr0l, fsr0h, status,2, status,0
   725 ;; Tracked objects:
   726 ;;		On entry : 0/0
   727 ;;		On exit  : 0/0
   728 ;;		Unchanged: 0/0
   729 ;; Data sizes:     COMMON   BANK0   BANK1   BANK2
   730 ;;      Params:         1       0       0       0
   731 ;;      Locals:         1       0       0       0
   732 ;;      Temps:          2       0       0       0
   733 ;;      Totals:         4       0       0       0
   734 ;;Total ram usage:        4 bytes
   735 ;; Hardware stack levels used:    1
   736 ;; This function calls:
   737 ;;		Nothing
   738 ;; This function is called by:
   739 ;;		_setup
   740 ;; This function uses a non-reentrant model
   741 ;;
   742                           psect	text2,local,class=CODE,delta=2,merge=1,group=0
   743                           	file	"H628A.c"
   744                           	line	25
   745                           global __ptext2
   746                           __ptext2:	;psect for function _pinMode
   747  0777                     psect	text2
   748                           	file	"H628A.c"
   749                           	line	25
   750                           	global	__size_of_pinMode
   751                           	__size_of_pinMode	equ	__end_of_pinMode-_pinMode
   752  0087                     	
   753                           _pinMode:	
   754  0777                     ;incstack = 0
   755                           	opt	stack 6
   756                           ; Regs used in _pinMode: [wreg-fsr0h+status,2+status,0]
   757                           ;pinMode@pin stored from wreg
   758                           	movwf	(pinMode@pin)
   759  0777  00F3               	line	27
   760                           	
   761                           l1152:	
   762  0778                     ;H628A.c: 25: void pinMode(char pin, char dir);H628A.c: 26: {;H628A.c: 27:     switch(pi
                                 n)
   763                           	goto	l1184
   764  0778  2FEA               	line	29
   765                           ;H628A.c: 28:     {;H628A.c: 29:         case 0:
   766                           	
   767                           l62:	
   768  0779                     	line	30
   769                           	
   770                           l1154:	
   771  0779                     ;H628A.c: 30:             TRISAbits.TRISA0 = dir;
   772                           	rrf	(pinMode@dir),w
   773  0779  0C70               	bsf	status, 5	;RP0=1, select bank1
   774  077A  1683               	bcf	status, 6	;RP1=0, select bank1
   775  077B  1303               	skipc
   776  077C  1C03               	bcf	(133)^080h,0	;volatile
   777  077D  1005               	skipnc
   778  077E  1803               	bsf	(133)^080h,0	;volatile
   779  077F  1405               	line	31
   780                           ;H628A.c: 31:             break;
   781                           	goto	l77
   782  0780  2FFD               	line	32
   783                           ;H628A.c: 32:         case 1:
   784                           	
   785                           l64:	
   786  0781                     	line	33
   787                           	
   788                           l1156:	
   789  0781                     ;H628A.c: 33:             TRISAbits.TRISA1 = dir;
   790                           	rrf	(pinMode@dir),w
   791  0781  0C70               	bsf	status, 5	;RP0=1, select bank1
   792  0782  1683               	bcf	status, 6	;RP1=0, select bank1
   793  0783  1303               	skipc
   794  0784  1C03               	bcf	(133)^080h,1	;volatile
   795  0785  1085               	skipnc
   796  0786  1803               	bsf	(133)^080h,1	;volatile
   797  0787  1485               	line	34
   798                           ;H628A.c: 34:             break;
   799                           	goto	l77
   800  0788  2FFD               	line	35
   801                           ;H628A.c: 35:         case 2:
   802                           	
   803                           l65:	
   804  0789                     	line	36
   805                           	
   806                           l1158:	
   807  0789                     ;H628A.c: 36:             TRISAbits.TRISA2 = dir;
   808                           	rrf	(pinMode@dir),w
   809  0789  0C70               	bsf	status, 5	;RP0=1, select bank1
   810  078A  1683               	bcf	status, 6	;RP1=0, select bank1
   811  078B  1303               	skipc
   812  078C  1C03               	bcf	(133)^080h,2	;volatile
   813  078D  1105               	skipnc
   814  078E  1803               	bsf	(133)^080h,2	;volatile
   815  078F  1505               	line	37
   816                           ;H628A.c: 37:             break;
   817                           	goto	l77
   818  0790  2FFD               	line	38
   819                           ;H628A.c: 38:         case 3:
   820                           	
   821                           l66:	
   822  0791                     	line	39
   823                           	
   824                           l1160:	
   825  0791                     ;H628A.c: 39:             TRISAbits.TRISA3 = dir;
   826                           	rrf	(pinMode@dir),w
   827  0791  0C70               	bsf	status, 5	;RP0=1, select bank1
   828  0792  1683               	bcf	status, 6	;RP1=0, select bank1
   829  0793  1303               	skipc
   830  0794  1C03               	bcf	(133)^080h,3	;volatile
   831  0795  1185               	skipnc
   832  0796  1803               	bsf	(133)^080h,3	;volatile
   833  0797  1585               	line	40
   834                           ;H628A.c: 40:             break;
   835                           	goto	l77
   836  0798  2FFD               	line	41
   837                           ;H628A.c: 41:         case 4:
   838                           	
   839                           l67:	
   840  0799                     	line	42
   841                           	
   842                           l1162:	
   843  0799                     ;H628A.c: 42:             TRISAbits.TRISA6 = dir;
   844                           	rrf	(pinMode@dir),w
   845  0799  0C70               	bsf	status, 5	;RP0=1, select bank1
   846  079A  1683               	bcf	status, 6	;RP1=0, select bank1
   847  079B  1303               	skipc
   848  079C  1C03               	bcf	(133)^080h,6	;volatile
   849  079D  1305               	skipnc
   850  079E  1803               	bsf	(133)^080h,6	;volatile
   851  079F  1705               	line	43
   852                           ;H628A.c: 43:             break;
   853                           	goto	l77
   854  07A0  2FFD               	line	44
   855                           ;H628A.c: 44:         case 5:
   856                           	
   857                           l68:	
   858  07A1                     	line	45
   859                           	
   860                           l1164:	
   861  07A1                     ;H628A.c: 45:             TRISAbits.TRISA7 = dir;
   862                           	rrf	(pinMode@dir),w
   863  07A1  0C70               	bsf	status, 5	;RP0=1, select bank1
   864  07A2  1683               	bcf	status, 6	;RP1=0, select bank1
   865  07A3  1303               	skipc
   866  07A4  1C03               	bcf	(133)^080h,7	;volatile
   867  07A5  1385               	skipnc
   868  07A6  1803               	bsf	(133)^080h,7	;volatile
   869  07A7  1785               	line	46
   870                           ;H628A.c: 46:             break;
   871                           	goto	l77
   872  07A8  2FFD               	line	47
   873                           ;H628A.c: 47:         case 6:
   874                           	
   875                           l69:	
   876  07A9                     	line	48
   877                           	
   878                           l1166:	
   879  07A9                     ;H628A.c: 48:             TRISBbits.TRISB0 = dir;
   880                           	rrf	(pinMode@dir),w
   881  07A9  0C70               	bsf	status, 5	;RP0=1, select bank1
   882  07AA  1683               	bcf	status, 6	;RP1=0, select bank1
   883  07AB  1303               	skipc
   884  07AC  1C03               	bcf	(134)^080h,0	;volatile
   885  07AD  1006               	skipnc
   886  07AE  1803               	bsf	(134)^080h,0	;volatile
   887  07AF  1406               	line	49
   888                           ;H628A.c: 49:             break;
   889                           	goto	l77
   890  07B0  2FFD               	line	50
   891                           ;H628A.c: 50:         case 7:
   892                           	
   893                           l70:	
   894  07B1                     	line	51
   895                           	
   896                           l1168:	
   897  07B1                     ;H628A.c: 51:             TRISBbits.TRISB1 = dir;
   898                           	rrf	(pinMode@dir),w
   899  07B1  0C70               	bsf	status, 5	;RP0=1, select bank1
   900  07B2  1683               	bcf	status, 6	;RP1=0, select bank1
   901  07B3  1303               	skipc
   902  07B4  1C03               	bcf	(134)^080h,1	;volatile
   903  07B5  1086               	skipnc
   904  07B6  1803               	bsf	(134)^080h,1	;volatile
   905  07B7  1486               	line	52
   906                           ;H628A.c: 52:             break;
   907                           	goto	l77
   908  07B8  2FFD               	line	53
   909                           ;H628A.c: 53:         case 8:
   910                           	
   911                           l71:	
   912  07B9                     	line	54
   913                           	
   914                           l1170:	
   915  07B9                     ;H628A.c: 54:             TRISBbits.TRISB2 = dir;
   916                           	rrf	(pinMode@dir),w
   917  07B9  0C70               	bsf	status, 5	;RP0=1, select bank1
   918  07BA  1683               	bcf	status, 6	;RP1=0, select bank1
   919  07BB  1303               	skipc
   920  07BC  1C03               	bcf	(134)^080h,2	;volatile
   921  07BD  1106               	skipnc
   922  07BE  1803               	bsf	(134)^080h,2	;volatile
   923  07BF  1506               	line	55
   924                           ;H628A.c: 55:             break;
   925                           	goto	l77
   926  07C0  2FFD               	line	56
   927                           ;H628A.c: 56:         case 9:
   928                           	
   929                           l72:	
   930  07C1                     	line	57
   931                           	
   932                           l1172:	
   933  07C1                     ;H628A.c: 57:             TRISBbits.TRISB3 = dir;
   934                           	rrf	(pinMode@dir),w
   935  07C1  0C70               	bsf	status, 5	;RP0=1, select bank1
   936  07C2  1683               	bcf	status, 6	;RP1=0, select bank1
   937  07C3  1303               	skipc
   938  07C4  1C03               	bcf	(134)^080h,3	;volatile
   939  07C5  1186               	skipnc
   940  07C6  1803               	bsf	(134)^080h,3	;volatile
   941  07C7  1586               	line	58
   942                           ;H628A.c: 58:             break;
   943                           	goto	l77
   944  07C8  2FFD               	line	59
   945                           ;H628A.c: 59:         case 10:
   946                           	
   947                           l73:	
   948  07C9                     	line	60
   949                           	
   950                           l1174:	
   951  07C9                     ;H628A.c: 60:             TRISBbits.TRISB4 = dir;
   952                           	rrf	(pinMode@dir),w
   953  07C9  0C70               	bsf	status, 5	;RP0=1, select bank1
   954  07CA  1683               	bcf	status, 6	;RP1=0, select bank1
   955  07CB  1303               	skipc
   956  07CC  1C03               	bcf	(134)^080h,4	;volatile
   957  07CD  1206               	skipnc
   958  07CE  1803               	bsf	(134)^080h,4	;volatile
   959  07CF  1606               	line	61
   960                           ;H628A.c: 61:             break;
   961                           	goto	l77
   962  07D0  2FFD               	line	62
   963                           ;H628A.c: 62:         case 11:
   964                           	
   965                           l74:	
   966  07D1                     	line	63
   967                           	
   968                           l1176:	
   969  07D1                     ;H628A.c: 63:             TRISBbits.TRISB5 = dir;
   970                           	rrf	(pinMode@dir),w
   971  07D1  0C70               	bsf	status, 5	;RP0=1, select bank1
   972  07D2  1683               	bcf	status, 6	;RP1=0, select bank1
   973  07D3  1303               	skipc
   974  07D4  1C03               	bcf	(134)^080h,5	;volatile
   975  07D5  1286               	skipnc
   976  07D6  1803               	bsf	(134)^080h,5	;volatile
   977  07D7  1686               	line	64
   978                           ;H628A.c: 64:             break;
   979                           	goto	l77
   980  07D8  2FFD               	line	65
   981                           ;H628A.c: 65:         case 12:
   982                           	
   983                           l75:	
   984  07D9                     	line	66
   985                           	
   986                           l1178:	
   987  07D9                     ;H628A.c: 66:             TRISBbits.TRISB6 = dir;
   988                           	rrf	(pinMode@dir),w
   989  07D9  0C70               	bsf	status, 5	;RP0=1, select bank1
   990  07DA  1683               	bcf	status, 6	;RP1=0, select bank1
   991  07DB  1303               	skipc
   992  07DC  1C03               	bcf	(134)^080h,6	;volatile
   993  07DD  1306               	skipnc
   994  07DE  1803               	bsf	(134)^080h,6	;volatile
   995  07DF  1706               	line	67
   996                           ;H628A.c: 67:             break;
   997                           	goto	l77
   998  07E0  2FFD               	line	68
   999                           ;H628A.c: 68:         case 13:
  1000                           	
  1001                           l76:	
  1002  07E1                     	line	69
  1003                           	
  1004                           l1180:	
  1005  07E1                     ;H628A.c: 69:             TRISBbits.TRISB7 = dir;
  1006                           	rrf	(pinMode@dir),w
  1007  07E1  0C70               	bsf	status, 5	;RP0=1, select bank1
  1008  07E2  1683               	bcf	status, 6	;RP1=0, select bank1
  1009  07E3  1303               	skipc
  1010  07E4  1C03               	bcf	(134)^080h,7	;volatile
  1011  07E5  1386               	skipnc
  1012  07E6  1803               	bsf	(134)^080h,7	;volatile
  1013  07E7  1786               	line	70
  1014                           ;H628A.c: 70:             break;
  1015                           	goto	l77
  1016  07E8  2FFD               	line	72
  1017                           	
  1018                           l1182:	
  1019  07E9                     ;H628A.c: 72:     }
  1020                           	goto	l77
  1021  07E9  2FFD               	
  1022                           l61:	
  1023  07EA                     	
  1024                           l1184:	
  1025  07EA                     	movf	(pinMode@pin),w
  1026  07EA  0873               	movwf	(??_pinMode+0)+0
  1027  07EB  00F1               	clrf	(??_pinMode+0)+0+1
  1028  07EC  01F2               	; Switch on 2 bytes has been partitioned into a top level switch of size 1, and 1 sub-s
                                 witches
  1029                           ; Switch size 1, requested type "space"
  1030                           ; Number of cases is 1, Range of values is 0 to 0
  1031                           ; switch strategies available:
  1032                           ; Name         Instructions Cycles
  1033                           ; simple_byte            4     3 (average)
  1034                           ; direct_byte            7     6 (fixed)
  1035                           ; jumptable            260     6 (fixed)
  1036                           ;	Chosen strategy is simple_byte
  1037                           
  1038                           	movf 1+(??_pinMode+0)+0,w
  1039  07ED  0872               	opt asmopt_push
  1040                           	opt asmopt_off
  1041                           	xorlw	0^0	; case 0
  1042  07EE  3A00               	skipnz
  1043  07EF  1903               	goto	l1338
  1044  07F0  2FF2               	goto	l77
  1045  07F1  2FFD               	opt asmopt_pop
  1046                           	
  1047                           l1338:	
  1048  07F2                     ; Switch size 1, requested type "space"
  1049                           ; Number of cases is 14, Range of values is 0 to 13
  1050                           ; switch strategies available:
  1051                           ; Name         Instructions Cycles
  1052                           ; direct_byte           20     6 (fixed)
  1053                           ; simple_byte           43    22 (average)
  1054                           ; jumptable            260     6 (fixed)
  1055                           ;	Chosen strategy is direct_byte
  1056                           
  1057                           	movf 0+(??_pinMode+0)+0,w
  1058  07F2  0871               	movwf fsr
  1059  07F3  0084               	movlw	14
  1060  07F4  300E               	subwf	fsr,w
  1061  07F5  0204               skipnc
  1062  07F6  1803               goto l77
  1063  07F7  2FFD               movlw high(S1340)
  1064  07F8  3000               movwf pclath
  1065  07F9  008A               	movlw low(S1340)
  1066  07FA  3001               	addwf fsr,w
  1067  07FB  0704               	movwf pc
  1068  07FC  0082               psect	swtext1,local,class=CONST,delta=2
  1069                           global __pswtext1
  1070                           __pswtext1:
  1071  0001                     S1340:
  1072  0001                     	ljmp	l1154
  1073  0001  2F79               	ljmp	l1156
  1074  0002  2F81               	ljmp	l1158
  1075  0003  2F89               	ljmp	l1160
  1076  0004  2F91               	ljmp	l1162
  1077  0005  2F99               	ljmp	l1164
  1078  0006  2FA1               	ljmp	l1166
  1079  0007  2FA9               	ljmp	l1168
  1080  0008  2FB1               	ljmp	l1170
  1081  0009  2FB9               	ljmp	l1172
  1082  000A  2FC1               	ljmp	l1174
  1083  000B  2FC9               	ljmp	l1176
  1084  000C  2FD1               	ljmp	l1178
  1085  000D  2FD9               	ljmp	l1180
  1086  000E  2FE1               psect	text2
  1087                           
  1088                           	
  1089                           l63:	
  1090  07FD                     	line	73
  1091                           	
  1092                           l77:	
  1093  07FD                     	return
  1094  07FD  0008               	opt stack 0
  1095                           GLOBAL	__end_of_pinMode
  1096                           	__end_of_pinMode:
  1097  07FE                     	signat	_pinMode,8313
  1098                           	global	_loop
  1099                           
  1100 ;; *************** function _loop *****************
  1101 ;; Defined at:
  1102 ;;		line 10 in file "application.c"
  1103 ;; Parameters:    Size  Location     Type
  1104 ;;		None
  1105 ;; Auto vars:     Size  Location     Type
  1106 ;;		None
  1107 ;; Return value:  Size  Location     Type
  1108 ;;                  1    wreg      void 
  1109 ;; Registers used:
  1110 ;;		wreg, fsr0l, fsr0h, status,2, status,0, pclath, cstack
  1111 ;; Tracked objects:
  1112 ;;		On entry : 0/0
  1113 ;;		On exit  : 0/0
  1114 ;;		Unchanged: 0/0
  1115 ;; Data sizes:     COMMON   BANK0   BANK1   BANK2
  1116 ;;      Params:         0       0       0       0
  1117 ;;      Locals:         0       0       0       0
  1118 ;;      Temps:          0       0       0       0
  1119 ;;      Totals:         0       0       0       0
  1120 ;;Total ram usage:        0 bytes
  1121 ;; Hardware stack levels used:    1
  1122 ;; Hardware stack levels required when called:    1
  1123 ;; This function calls:
  1124 ;;		_delay
  1125 ;;		_digitalWrite
  1126 ;; This function is called by:
  1127 ;;		_main
  1128 ;; This function uses a non-reentrant model
  1129 ;;
  1130                           psect	text3,local,class=CODE,delta=2,merge=1,group=0
  1131                           	file	"application.c"
  1132                           	line	10
  1133                           global __ptext3
  1134                           __ptext3:	;psect for function _loop
  1135  06BD                     psect	text3
  1136                           	file	"application.c"
  1137                           	line	10
  1138                           	global	__size_of_loop
  1139                           	__size_of_loop	equ	__end_of_loop-_loop
  1140  0016                     	
  1141                           _loop:	
  1142  06BD                     ;incstack = 0
  1143                           	opt	stack 6
  1144                           ; Regs used in _loop: [wreg-fsr0h+status,2+status,0+pclath+cstack]
  1145                           	line	12
  1146                           	
  1147                           l1246:	
  1148  06BD                     ;application.c: 12:     digitalWrite(LED,1);
  1149                           	clrf	(digitalWrite@value)
  1150  06BD  01F0               	incf	(digitalWrite@value),f
  1151  06BE  0AF0               	movlw	low((_LED-__stringbase))
  1152  06BF  3001               	movwf	fsr0
  1153  06C0  0084               	fcall	stringdir
  1154  06C1  201D               	fcall	_digitalWrite
  1155  06C2  26F0               	line	13
  1156                           	
  1157                           l1248:	
  1158  06C3                     ;application.c: 13:     delay(500);
  1159                           	movlw	0F4h
  1160  06C3  30F4               	movwf	(delay@millis)
  1161  06C4  00F0               	movlw	01h
  1162  06C5  3001               	movwf	((delay@millis))+1
  1163  06C6  00F1               	fcall	_delay
  1164  06C7  26D3               	line	14
  1165                           	
  1166                           l1250:	
  1167  06C8                     ;application.c: 14:     digitalWrite(LED,0);
  1168                           	clrf	(digitalWrite@value)
  1169  06C8  01F0               	movlw	low((_LED-__stringbase))
  1170  06C9  3001               	movwf	fsr0
  1171  06CA  0084               	fcall	stringdir
  1172  06CB  201D               	fcall	_digitalWrite
  1173  06CC  26F0               	line	15
  1174                           ;application.c: 15:     delay(500);
  1175                           	movlw	0F4h
  1176  06CD  30F4               	movwf	(delay@millis)
  1177  06CE  00F0               	movlw	01h
  1178  06CF  3001               	movwf	((delay@millis))+1
  1179  06D0  00F1               	fcall	_delay
  1180  06D1  26D3               	line	16
  1181                           	
  1182                           l189:	
  1183  06D2                     	return
  1184  06D2  0008               	opt stack 0
  1185                           GLOBAL	__end_of_loop
  1186                           	__end_of_loop:
  1187  06D3                     	signat	_loop,89
  1188                           	global	_digitalWrite
  1189                           
  1190 ;; *************** function _digitalWrite *****************
  1191 ;; Defined at:
  1192 ;;		line 74 in file "H628A.c"
  1193 ;; Parameters:    Size  Location     Type
  1194 ;;  pin             1    wreg     unsigned char 
  1195 ;;  value           1    0[COMMON] unsigned char 
  1196 ;; Auto vars:     Size  Location     Type
  1197 ;;  pin             1    3[COMMON] unsigned char 
  1198 ;; Return value:  Size  Location     Type
  1199 ;;                  1    wreg      void 
  1200 ;; Registers used:
  1201 ;;		wreg, fsr0l, fsr0h, status,2, status,0
  1202 ;; Tracked objects:
  1203 ;;		On entry : 0/0
  1204 ;;		On exit  : 0/0
  1205 ;;		Unchanged: 0/0
  1206 ;; Data sizes:     COMMON   BANK0   BANK1   BANK2
  1207 ;;      Params:         1       0       0       0
  1208 ;;      Locals:         1       0       0       0
  1209 ;;      Temps:          2       0       0       0
  1210 ;;      Totals:         4       0       0       0
  1211 ;;Total ram usage:        4 bytes
  1212 ;; Hardware stack levels used:    1
  1213 ;; This function calls:
  1214 ;;		Nothing
  1215 ;; This function is called by:
  1216 ;;		_loop
  1217 ;; This function uses a non-reentrant model
  1218 ;;
  1219                           psect	text4,local,class=CODE,delta=2,merge=1,group=0
  1220                           	file	"H628A.c"
  1221                           	line	74
  1222                           global __ptext4
  1223                           __ptext4:	;psect for function _digitalWrite
  1224  06F0                     psect	text4
  1225                           	file	"H628A.c"
  1226                           	line	74
  1227                           	global	__size_of_digitalWrite
  1228                           	__size_of_digitalWrite	equ	__end_of_digitalWrite-_digitalWrite
  1229  0087                     	
  1230                           _digitalWrite:	
  1231  06F0                     ;incstack = 0
  1232                           	opt	stack 6
  1233                           ; Regs used in _digitalWrite: [wreg-fsr0h+status,2+status,0]
  1234                           ;digitalWrite@pin stored from wreg
  1235                           	movwf	(digitalWrite@pin)
  1236  06F0  00F3               	line	76
  1237                           	
  1238                           l1194:	
  1239  06F1                     ;H628A.c: 74: void digitalWrite(char pin,char value);H628A.c: 75: {;H628A.c: 76:     swi
                                 tch(pin)
  1240                           	goto	l1226
  1241  06F1  2F63               	line	78
  1242                           ;H628A.c: 77:     {;H628A.c: 78:         case 0:
  1243                           	
  1244                           l81:	
  1245  06F2                     	line	79
  1246                           	
  1247                           l1196:	
  1248  06F2                     ;H628A.c: 79:             PORTAbits.RA0 = value;
  1249                           	rrf	(digitalWrite@value),w
  1250  06F2  0C70               	bcf	status, 5	;RP0=0, select bank0
  1251  06F3  1283               	bcf	status, 6	;RP1=0, select bank0
  1252  06F4  1303               	skipc
  1253  06F5  1C03               	bcf	(5),0	;volatile
  1254  06F6  1005               	skipnc
  1255  06F7  1803               	bsf	(5),0	;volatile
  1256  06F8  1405               	line	80
  1257                           ;H628A.c: 80:             break;
  1258                           	goto	l96
  1259  06F9  2F76               	line	81
  1260                           ;H628A.c: 81:         case 1:
  1261                           	
  1262                           l83:	
  1263  06FA                     	line	82
  1264                           	
  1265                           l1198:	
  1266  06FA                     ;H628A.c: 82:             PORTAbits.RA1 = value;
  1267                           	rrf	(digitalWrite@value),w
  1268  06FA  0C70               	bcf	status, 5	;RP0=0, select bank0
  1269  06FB  1283               	bcf	status, 6	;RP1=0, select bank0
  1270  06FC  1303               	skipc
  1271  06FD  1C03               	bcf	(5),1	;volatile
  1272  06FE  1085               	skipnc
  1273  06FF  1803               	bsf	(5),1	;volatile
  1274  0700  1485               	line	83
  1275                           ;H628A.c: 83:             break;
  1276                           	goto	l96
  1277  0701  2F76               	line	84
  1278                           ;H628A.c: 84:         case 2:
  1279                           	
  1280                           l84:	
  1281  0702                     	line	85
  1282                           	
  1283                           l1200:	
  1284  0702                     ;H628A.c: 85:             PORTAbits.RA2 = value;
  1285                           	rrf	(digitalWrite@value),w
  1286  0702  0C70               	bcf	status, 5	;RP0=0, select bank0
  1287  0703  1283               	bcf	status, 6	;RP1=0, select bank0
  1288  0704  1303               	skipc
  1289  0705  1C03               	bcf	(5),2	;volatile
  1290  0706  1105               	skipnc
  1291  0707  1803               	bsf	(5),2	;volatile
  1292  0708  1505               	line	86
  1293                           ;H628A.c: 86:             break;
  1294                           	goto	l96
  1295  0709  2F76               	line	87
  1296                           ;H628A.c: 87:         case 3:
  1297                           	
  1298                           l85:	
  1299  070A                     	line	88
  1300                           	
  1301                           l1202:	
  1302  070A                     ;H628A.c: 88:             PORTAbits.RA3 = value;
  1303                           	rrf	(digitalWrite@value),w
  1304  070A  0C70               	bcf	status, 5	;RP0=0, select bank0
  1305  070B  1283               	bcf	status, 6	;RP1=0, select bank0
  1306  070C  1303               	skipc
  1307  070D  1C03               	bcf	(5),3	;volatile
  1308  070E  1185               	skipnc
  1309  070F  1803               	bsf	(5),3	;volatile
  1310  0710  1585               	line	89
  1311                           ;H628A.c: 89:             break;
  1312                           	goto	l96
  1313  0711  2F76               	line	90
  1314                           ;H628A.c: 90:         case 4:
  1315                           	
  1316                           l86:	
  1317  0712                     	line	91
  1318                           	
  1319                           l1204:	
  1320  0712                     ;H628A.c: 91:             PORTAbits.RA6 = value;
  1321                           	rrf	(digitalWrite@value),w
  1322  0712  0C70               	bcf	status, 5	;RP0=0, select bank0
  1323  0713  1283               	bcf	status, 6	;RP1=0, select bank0
  1324  0714  1303               	skipc
  1325  0715  1C03               	bcf	(5),6	;volatile
  1326  0716  1305               	skipnc
  1327  0717  1803               	bsf	(5),6	;volatile
  1328  0718  1705               	line	92
  1329                           ;H628A.c: 92:             break;
  1330                           	goto	l96
  1331  0719  2F76               	line	93
  1332                           ;H628A.c: 93:         case 5:
  1333                           	
  1334                           l87:	
  1335  071A                     	line	94
  1336                           	
  1337                           l1206:	
  1338  071A                     ;H628A.c: 94:             PORTAbits.RA7 = value;
  1339                           	rrf	(digitalWrite@value),w
  1340  071A  0C70               	bcf	status, 5	;RP0=0, select bank0
  1341  071B  1283               	bcf	status, 6	;RP1=0, select bank0
  1342  071C  1303               	skipc
  1343  071D  1C03               	bcf	(5),7	;volatile
  1344  071E  1385               	skipnc
  1345  071F  1803               	bsf	(5),7	;volatile
  1346  0720  1785               	line	95
  1347                           ;H628A.c: 95:             break;
  1348                           	goto	l96
  1349  0721  2F76               	line	96
  1350                           ;H628A.c: 96:         case 6:
  1351                           	
  1352                           l88:	
  1353  0722                     	line	97
  1354                           	
  1355                           l1208:	
  1356  0722                     ;H628A.c: 97:             PORTBbits.RB0 = value;
  1357                           	rrf	(digitalWrite@value),w
  1358  0722  0C70               	bcf	status, 5	;RP0=0, select bank0
  1359  0723  1283               	bcf	status, 6	;RP1=0, select bank0
  1360  0724  1303               	skipc
  1361  0725  1C03               	bcf	(6),0	;volatile
  1362  0726  1006               	skipnc
  1363  0727  1803               	bsf	(6),0	;volatile
  1364  0728  1406               	line	98
  1365                           ;H628A.c: 98:             break;
  1366                           	goto	l96
  1367  0729  2F76               	line	99
  1368                           ;H628A.c: 99:         case 7:
  1369                           	
  1370                           l89:	
  1371  072A                     	line	100
  1372                           	
  1373                           l1210:	
  1374  072A                     ;H628A.c: 100:             PORTBbits.RB1 = value;
  1375                           	rrf	(digitalWrite@value),w
  1376  072A  0C70               	bcf	status, 5	;RP0=0, select bank0
  1377  072B  1283               	bcf	status, 6	;RP1=0, select bank0
  1378  072C  1303               	skipc
  1379  072D  1C03               	bcf	(6),1	;volatile
  1380  072E  1086               	skipnc
  1381  072F  1803               	bsf	(6),1	;volatile
  1382  0730  1486               	line	101
  1383                           ;H628A.c: 101:             break;
  1384                           	goto	l96
  1385  0731  2F76               	line	102
  1386                           ;H628A.c: 102:         case 8:
  1387                           	
  1388                           l90:	
  1389  0732                     	line	103
  1390                           	
  1391                           l1212:	
  1392  0732                     ;H628A.c: 103:             PORTBbits.RB2 = value;
  1393                           	rrf	(digitalWrite@value),w
  1394  0732  0C70               	bcf	status, 5	;RP0=0, select bank0
  1395  0733  1283               	bcf	status, 6	;RP1=0, select bank0
  1396  0734  1303               	skipc
  1397  0735  1C03               	bcf	(6),2	;volatile
  1398  0736  1106               	skipnc
  1399  0737  1803               	bsf	(6),2	;volatile
  1400  0738  1506               	line	104
  1401                           ;H628A.c: 104:             break;
  1402                           	goto	l96
  1403  0739  2F76               	line	105
  1404                           ;H628A.c: 105:         case 9:
  1405                           	
  1406                           l91:	
  1407  073A                     	line	106
  1408                           	
  1409                           l1214:	
  1410  073A                     ;H628A.c: 106:             PORTBbits.RB3 = value;
  1411                           	rrf	(digitalWrite@value),w
  1412  073A  0C70               	bcf	status, 5	;RP0=0, select bank0
  1413  073B  1283               	bcf	status, 6	;RP1=0, select bank0
  1414  073C  1303               	skipc
  1415  073D  1C03               	bcf	(6),3	;volatile
  1416  073E  1186               	skipnc
  1417  073F  1803               	bsf	(6),3	;volatile
  1418  0740  1586               	line	107
  1419                           ;H628A.c: 107:             break;
  1420                           	goto	l96
  1421  0741  2F76               	line	108
  1422                           ;H628A.c: 108:         case 10:
  1423                           	
  1424                           l92:	
  1425  0742                     	line	109
  1426                           	
  1427                           l1216:	
  1428  0742                     ;H628A.c: 109:             PORTBbits.RB4 = value;
  1429                           	rrf	(digitalWrite@value),w
  1430  0742  0C70               	bcf	status, 5	;RP0=0, select bank0
  1431  0743  1283               	bcf	status, 6	;RP1=0, select bank0
  1432  0744  1303               	skipc
  1433  0745  1C03               	bcf	(6),4	;volatile
  1434  0746  1206               	skipnc
  1435  0747  1803               	bsf	(6),4	;volatile
  1436  0748  1606               	line	110
  1437                           ;H628A.c: 110:             break;
  1438                           	goto	l96
  1439  0749  2F76               	line	111
  1440                           ;H628A.c: 111:         case 11:
  1441                           	
  1442                           l93:	
  1443  074A                     	line	112
  1444                           	
  1445                           l1218:	
  1446  074A                     ;H628A.c: 112:             PORTBbits.RB5 = value;
  1447                           	rrf	(digitalWrite@value),w
  1448  074A  0C70               	bcf	status, 5	;RP0=0, select bank0
  1449  074B  1283               	bcf	status, 6	;RP1=0, select bank0
  1450  074C  1303               	skipc
  1451  074D  1C03               	bcf	(6),5	;volatile
  1452  074E  1286               	skipnc
  1453  074F  1803               	bsf	(6),5	;volatile
  1454  0750  1686               	line	113
  1455                           ;H628A.c: 113:             break;
  1456                           	goto	l96
  1457  0751  2F76               	line	114
  1458                           ;H628A.c: 114:         case 12:
  1459                           	
  1460                           l94:	
  1461  0752                     	line	115
  1462                           	
  1463                           l1220:	
  1464  0752                     ;H628A.c: 115:             PORTBbits.RB6 = value;
  1465                           	rrf	(digitalWrite@value),w
  1466  0752  0C70               	bcf	status, 5	;RP0=0, select bank0
  1467  0753  1283               	bcf	status, 6	;RP1=0, select bank0
  1468  0754  1303               	skipc
  1469  0755  1C03               	bcf	(6),6	;volatile
  1470  0756  1306               	skipnc
  1471  0757  1803               	bsf	(6),6	;volatile
  1472  0758  1706               	line	116
  1473                           ;H628A.c: 116:             break;
  1474                           	goto	l96
  1475  0759  2F76               	line	117
  1476                           ;H628A.c: 117:         case 13:
  1477                           	
  1478                           l95:	
  1479  075A                     	line	118
  1480                           	
  1481                           l1222:	
  1482  075A                     ;H628A.c: 118:             PORTBbits.RB7 = value;
  1483                           	rrf	(digitalWrite@value),w
  1484  075A  0C70               	bcf	status, 5	;RP0=0, select bank0
  1485  075B  1283               	bcf	status, 6	;RP1=0, select bank0
  1486  075C  1303               	skipc
  1487  075D  1C03               	bcf	(6),7	;volatile
  1488  075E  1386               	skipnc
  1489  075F  1803               	bsf	(6),7	;volatile
  1490  0760  1786               	line	119
  1491                           ;H628A.c: 119:             break;
  1492                           	goto	l96
  1493  0761  2F76               	line	121
  1494                           	
  1495                           l1224:	
  1496  0762                     ;H628A.c: 121:     }
  1497                           	goto	l96
  1498  0762  2F76               	
  1499                           l80:	
  1500  0763                     	
  1501                           l1226:	
  1502  0763                     	movf	(digitalWrite@pin),w
  1503  0763  0873               	movwf	(??_digitalWrite+0)+0
  1504  0764  00F1               	clrf	(??_digitalWrite+0)+0+1
  1505  0765  01F2               	; Switch on 2 bytes has been partitioned into a top level switch of size 1, and 1 sub-s
                                 witches
  1506                           ; Switch size 1, requested type "space"
  1507                           ; Number of cases is 1, Range of values is 0 to 0
  1508                           ; switch strategies available:
  1509                           ; Name         Instructions Cycles
  1510                           ; simple_byte            4     3 (average)
  1511                           ; direct_byte            7     6 (fixed)
  1512                           ; jumptable            260     6 (fixed)
  1513                           ;	Chosen strategy is simple_byte
  1514                           
  1515                           	movf 1+(??_digitalWrite+0)+0,w
  1516  0766  0872               	opt asmopt_push
  1517                           	opt asmopt_off
  1518                           	xorlw	0^0	; case 0
  1519  0767  3A00               	skipnz
  1520  0768  1903               	goto	l1342
  1521  0769  2F6B               	goto	l96
  1522  076A  2F76               	opt asmopt_pop
  1523                           	
  1524                           l1342:	
  1525  076B                     ; Switch size 1, requested type "space"
  1526                           ; Number of cases is 14, Range of values is 0 to 13
  1527                           ; switch strategies available:
  1528                           ; Name         Instructions Cycles
  1529                           ; direct_byte           20     6 (fixed)
  1530                           ; simple_byte           43    22 (average)
  1531                           ; jumptable            260     6 (fixed)
  1532                           ;	Chosen strategy is direct_byte
  1533                           
  1534                           	movf 0+(??_digitalWrite+0)+0,w
  1535  076B  0871               	movwf fsr
  1536  076C  0084               	movlw	14
  1537  076D  300E               	subwf	fsr,w
  1538  076E  0204               skipnc
  1539  076F  1803               goto l96
  1540  0770  2F76               movlw high(S1344)
  1541  0771  3000               movwf pclath
  1542  0772  008A               	movlw low(S1344)
  1543  0773  300F               	addwf fsr,w
  1544  0774  0704               	movwf pc
  1545  0775  0082               psect	swtext2,local,class=CONST,delta=2
  1546                           global __pswtext2
  1547                           __pswtext2:
  1548  000F                     S1344:
  1549  000F                     	ljmp	l1196
  1550  000F  2EF2               	ljmp	l1198
  1551  0010  2EFA               	ljmp	l1200
  1552  0011  2F02               	ljmp	l1202
  1553  0012  2F0A               	ljmp	l1204
  1554  0013  2F12               	ljmp	l1206
  1555  0014  2F1A               	ljmp	l1208
  1556  0015  2F22               	ljmp	l1210
  1557  0016  2F2A               	ljmp	l1212
  1558  0017  2F32               	ljmp	l1214
  1559  0018  2F3A               	ljmp	l1216
  1560  0019  2F42               	ljmp	l1218
  1561  001A  2F4A               	ljmp	l1220
  1562  001B  2F52               	ljmp	l1222
  1563  001C  2F5A               psect	text4
  1564                           
  1565                           	
  1566                           l82:	
  1567  0776                     	line	122
  1568                           	
  1569                           l96:	
  1570  0776                     	return
  1571  0776  0008               	opt stack 0
  1572                           GLOBAL	__end_of_digitalWrite
  1573                           	__end_of_digitalWrite:
  1574  0777                     	signat	_digitalWrite,8313
  1575                           	global	_delay
  1576                           
  1577 ;; *************** function _delay *****************
  1578 ;; Defined at:
  1579 ;;		line 261 in file "H628A.c"
  1580 ;; Parameters:    Size  Location     Type
  1581 ;;  millis          2    0[COMMON] unsigned int 
  1582 ;; Auto vars:     Size  Location     Type
  1583 ;;  i               1    3[COMMON] unsigned char 
  1584 ;; Return value:  Size  Location     Type
  1585 ;;                  1    wreg      void 
  1586 ;; Registers used:
  1587 ;;		wreg, status,2, status,0
  1588 ;; Tracked objects:
  1589 ;;		On entry : 0/0
  1590 ;;		On exit  : 0/0
  1591 ;;		Unchanged: 0/0
  1592 ;; Data sizes:     COMMON   BANK0   BANK1   BANK2
  1593 ;;      Params:         2       0       0       0
  1594 ;;      Locals:         1       0       0       0
  1595 ;;      Temps:          1       0       0       0
  1596 ;;      Totals:         4       0       0       0
  1597 ;;Total ram usage:        4 bytes
  1598 ;; Hardware stack levels used:    1
  1599 ;; This function calls:
  1600 ;;		Nothing
  1601 ;; This function is called by:
  1602 ;;		_loop
  1603 ;; This function uses a non-reentrant model
  1604 ;;
  1605                           psect	text5,local,class=CODE,delta=2,merge=1,group=0
  1606                           	line	261
  1607                           global __ptext5
  1608                           __ptext5:	;psect for function _delay
  1609  06D3                     psect	text5
  1610                           	file	"H628A.c"
  1611                           	line	261
  1612                           	global	__size_of_delay
  1613                           	__size_of_delay	equ	__end_of_delay-_delay
  1614  001D                     	
  1615                           _delay:	
  1616  06D3                     ;incstack = 0
  1617                           	opt	stack 6
  1618                           ; Regs used in _delay: [wreg+status,2+status,0]
  1619                           	line	263
  1620                           	
  1621                           l1236:	
  1622  06D3                     ;H628A.c: 261: void delay(unsigned int millis);H628A.c: 262: {;H628A.c: 263:     for(cha
                                 r i=0;i!=200;i++)
  1623                           	clrf	(delay@i)
  1624  06D3  01F3               	
  1625                           l1238:	
  1626  06D4                     		movlw	200
  1627  06D4  30C8               	xorwf	((delay@i)),w
  1628  06D5  0673               	btfss	status,2
  1629  06D6  1D03               	goto	u121
  1630  06D7  2ED9               	goto	u120
  1631  06D8  2EDA               u121:
  1632  06D9                     	goto	l173
  1633  06D9  2EDC               u120:
  1634  06DA                     	goto	l175
  1635  06DA  2EEF               	
  1636                           l1240:	
  1637  06DB                     	goto	l175
  1638  06DB  2EEF               	
  1639                           l173:	
  1640  06DC                     	line	265
  1641                           # 265 "H628A.c"
  1642                           NOP ;# 
  1643  06DC  0000               	line	266
  1644                           # 266 "H628A.c"
  1645                           NOP ;# 
  1646  06DD  0000               	line	267
  1647                           # 267 "H628A.c"
  1648                           NOP ;# 
  1649  06DE  0000               	line	268
  1650                           # 268 "H628A.c"
  1651                           NOP ;# 
  1652  06DF  0000               	line	269
  1653                           # 269 "H628A.c"
  1654                           NOP ;# 
  1655  06E0  0000               	line	270
  1656                           # 270 "H628A.c"
  1657                           NOP ;# 
  1658  06E1  0000               	line	271
  1659                           # 271 "H628A.c"
  1660                           NOP ;# 
  1661  06E2  0000               	line	272
  1662                           # 272 "H628A.c"
  1663                           NOP ;# 
  1664  06E3  0000               psect	text5
  1665                           	line	274
  1666                           	
  1667                           l1242:	
  1668  06E4                     ;H628A.c: 274:     }
  1669                           	movlw	low(01h)
  1670  06E4  3001               	movwf	(??_delay+0)+0
  1671  06E5  00F2               	movf	(??_delay+0)+0,w
  1672  06E6  0872               	addwf	(delay@i),f
  1673  06E7  07F3               		movlw	200
  1674  06E8  30C8               	xorwf	((delay@i)),w
  1675  06E9  0673               	btfss	status,2
  1676  06EA  1D03               	goto	u131
  1677  06EB  2EED               	goto	u130
  1678  06EC  2EEE               u131:
  1679  06ED                     	goto	l173
  1680  06ED  2EDC               u130:
  1681  06EE                     	goto	l175
  1682  06EE  2EEF               	
  1683                           l174:	
  1684  06EF                     	line	275
  1685                           	
  1686                           l175:	
  1687  06EF                     	return
  1688  06EF  0008               	opt stack 0
  1689                           GLOBAL	__end_of_delay
  1690                           	__end_of_delay:
  1691  06F0                     	signat	_delay,4217
  1692                           	global	_ConfiguracionInicial
  1693                           
  1694 ;; *************** function _ConfiguracionInicial *****************
  1695 ;; Defined at:
  1696 ;;		line 13 in file "H628A.c"
  1697 ;; Parameters:    Size  Location     Type
  1698 ;;		None
  1699 ;; Auto vars:     Size  Location     Type
  1700 ;;		None
  1701 ;; Return value:  Size  Location     Type
  1702 ;;                  1    wreg      void 
  1703 ;; Registers used:
  1704 ;;		wreg, status,2
  1705 ;; Tracked objects:
  1706 ;;		On entry : 0/0
  1707 ;;		On exit  : 0/0
  1708 ;;		Unchanged: 0/0
  1709 ;; Data sizes:     COMMON   BANK0   BANK1   BANK2
  1710 ;;      Params:         0       0       0       0
  1711 ;;      Locals:         0       0       0       0
  1712 ;;      Temps:          0       0       0       0
  1713 ;;      Totals:         0       0       0       0
  1714 ;;Total ram usage:        0 bytes
  1715 ;; Hardware stack levels used:    1
  1716 ;; This function calls:
  1717 ;;		Nothing
  1718 ;; This function is called by:
  1719 ;;		_main
  1720 ;; This function uses a non-reentrant model
  1721 ;;
  1722                           psect	text6,local,class=CODE,delta=2,merge=1,group=0
  1723                           	line	13
  1724                           global __ptext6
  1725                           __ptext6:	;psect for function _ConfiguracionInicial
  1726  06AF                     psect	text6
  1727                           	file	"H628A.c"
  1728                           	line	13
  1729                           	global	__size_of_ConfiguracionInicial
  1730                           	__size_of_ConfiguracionInicial	equ	__end_of_ConfiguracionInicial-_ConfiguracionInicial

  1731  000E                     	
  1732                           _ConfiguracionInicial:	
  1733  06AF                     ;incstack = 0
  1734                           	opt	stack 7
  1735                           ; Regs used in _ConfiguracionInicial: [wreg+status,2]
  1736                           	line	15
  1737                           	
  1738                           l874:	
  1739  06AF                     ;H628A.c: 15:     CCP1CON = 0x0C;
  1740                           	movlw	low(0Ch)
  1741  06AF  300C               	bcf	status, 5	;RP0=0, select bank0
  1742  06B0  1283               	bcf	status, 6	;RP1=0, select bank0
  1743  06B1  1303               	movwf	(23)	;volatile
  1744  06B2  0097               	line	17
  1745                           ;H628A.c: 17:     PR2 = 0x64;
  1746                           	movlw	low(064h)
  1747  06B3  3064               	bsf	status, 5	;RP0=1, select bank1
  1748  06B4  1683               	bcf	status, 6	;RP1=0, select bank1
  1749  06B5  1303               	movwf	(146)^080h	;volatile
  1750  06B6  0092               	line	19
  1751                           	
  1752                           l876:	
  1753  06B7                     ;H628A.c: 19:     CCPR1L = 0x00;
  1754                           	bcf	status, 5	;RP0=0, select bank0
  1755  06B7  1283               	bcf	status, 6	;RP1=0, select bank0
  1756  06B8  1303               	clrf	(21)	;volatile
  1757  06B9  0195               	line	23
  1758                           	
  1759                           l878:	
  1760  06BA                     ;H628A.c: 23:     T2CON = 0x07;
  1761                           	movlw	low(07h)
  1762  06BA  3007               	movwf	(18)	;volatile
  1763  06BB  0092               	line	24
  1764                           	
  1765                           l58:	
  1766  06BC                     	return
  1767  06BC  0008               	opt stack 0
  1768                           GLOBAL	__end_of_ConfiguracionInicial
  1769                           	__end_of_ConfiguracionInicial:
  1770  06BD                     	signat	_ConfiguracionInicial,89
  1771                           global	___latbits
  1772                           ___latbits	equ	0
  1773  0000                     	global	btemp
  1774                           	btemp set 07Eh
  1775  007E                     
  1776                           	DABS	1,126,2	;btemp
  1777                           	global	wtemp0
  1778                           	wtemp0 set btemp+0
  1779  007E                     	end


Data Sizes:
    Strings     0
    Constant    1
    Data        0
    BSS         0
    Persistent  0
    Stack       0

Auto Spaces:
    Space          Size  Autos    Used
    COMMON           14      4       4
    BANK0            80      0       0
    BANK1            80      0       0
    BANK2            48      0       0

Pointer List with Targets:

    None.

Critical Paths under _main in COMMON

    _setup->_pinMode
    _loop->_delay
    _loop->_digitalWrite

Critical Paths under _main in BANK0

    None.

Critical Paths under _main in BANK1

    None.

Critical Paths under _main in BANK2

    None.

Call Graph Tables:

 ---------------------------------------------------------------------------------
 (Depth) Function   	        Calls       Base Space   Used Autos Params    Refs
 ---------------------------------------------------------------------------------
 (0) _main                                                 0     0      0    1086
               _ConfiguracionInicial
                               _loop
                              _setup
 ---------------------------------------------------------------------------------
 (1) _setup                                                0     0      0     406
                            _pinMode
 ---------------------------------------------------------------------------------
 (2) _pinMode                                              4     3      1     406
                                              0 COMMON     4     3      1
 ---------------------------------------------------------------------------------
 (1) _loop                                                 0     0      0     680
                              _delay
                       _digitalWrite
 ---------------------------------------------------------------------------------
 (2) _digitalWrite                                         4     3      1     482
                                              0 COMMON     4     3      1
 ---------------------------------------------------------------------------------
 (2) _delay                                                4     2      2     198
                                              0 COMMON     4     2      2
 ---------------------------------------------------------------------------------
 (1) _ConfiguracionInicial                                 0     0      0       0
 ---------------------------------------------------------------------------------
 Estimated maximum stack depth 2
 ---------------------------------------------------------------------------------

 Call Graph Graphs:

 _main (ROOT)
   _ConfiguracionInicial
   _loop
     _delay
     _digitalWrite
   _setup
     _pinMode

 Address spaces:
Name               Size   Autos  Total    Cost      Usage
BITCOMMON            E      0       0       0        0.0%
EEDATA              80      0       0       0        0.0%
NULL                 0      0       0       0        0.0%
CODE                 0      0       0       0        0.0%
COMMON               E      4       4       1       28.6%
BITSFR0              0      0       0       1        0.0%
SFR0                 0      0       0       1        0.0%
BITSFR1              0      0       0       2        0.0%
SFR1                 0      0       0       2        0.0%
STACK                0      0       0       2        0.0%
BANK0               50      0       0       3        0.0%
BITSFR3              0      0       0       4        0.0%
SFR3                 0      0       0       4        0.0%
ABS                  0      0       0       4        0.0%
BITBANK0            50      0       0       5        0.0%
BITSFR2              0      0       0       5        0.0%
SFR2                 0      0       0       5        0.0%
BITBANK1            50      0       0       6        0.0%
BANK1               50      0       0       7        0.0%
BITBANK2            30      0       0       8        0.0%
BANK2               30      0       0       9        0.0%
DATA                 0      0       0      10        0.0%


Microchip Technology PIC Macro Assembler V2.00 build -1524193055 
Symbol Table                                                                                   Wed Nov 10 20:04:15 2021

                            pc 0002                    __CFG_CP$OFF 0000                             l61 07EA  
                           l53 06AC                             l70 07B1                             l62 0779  
                           l54 06AE                             l63 07FD                             l71 07B9  
                           l55 06AE                             l80 0763                             l72 07C1  
                           l64 0781                             l81 06F2                             l73 07C9  
                           l65 0789                             l58 06BC                             l82 0776  
                           l90 0732                             l74 07D1                             l66 0791  
                           l91 073A                             l83 06FA                             l75 07D9  
                           l67 0799                             l92 0742                             l84 0702  
                           l76 07E1                             l68 07A1                             l93 074A  
                           l85 070A                             l69 07A9                             l77 07FD  
                           l94 0752                             l86 0712                             l95 075A  
                           l87 071A                             l88 0722                             l96 0776  
                           l89 072A                             fsr 0004                            l173 06DC  
                          l174 06EF                            l175 06EF                            l186 06A8  
                          l189 06D2                            l874 06AF                            l876 06B7  
                          l878 06BA                            _LED 0023                            u120 06DA  
                          u121 06D9                            u130 06EE                            u131 06ED  
                          _PR2 0092                   __CFG_CPD$OFF 0000                            fsr0 0004  
                         S1340 0001                           S1344 000F                   __CFG_LVP$OFF 0000  
                         l1200 0702                           l1210 072A                           l1202 070A  
                         l1220 0752                           l1212 0732                           l1204 0712  
                         l1222 075A                           l1214 073A                           l1206 071A  
                         l1240 06DB                           l1224 0762                           l1216 0742  
                         l1208 0722                           l1160 0791                           l1152 0778  
                         l1242 06E4                           l1218 074A                           l1226 0763  
                         l1250 06C8                           l1170 07B9                           l1162 0799  
                         l1154 0779                           l1236 06D3                           l1180 07E1  
                         l1172 07C1                           l1164 07A1                           l1156 0781  
                         l1244 06A3                           l1252 06A9                           l1238 06D4  
                         l1342 076B                           l1246 06BD                           l1182 07E9  
                         l1174 07C9                           l1166 07A9                           l1158 0789  
                         l1254 06AA                           l1248 06C3                           l1176 07D1  
                         l1168 07B1                           l1184 07EA                           l1256 06AC  
                         l1194 06F1                           l1338 07F2                           l1178 07D9  
                         l1196 06F2                           l1198 06FA                           _BRGH 04C2  
                         _CREN 00C4                           _RCIF 0065                           _SPEN 00C7  
                         _TRMT 04C1                           _TXEN 04C5                           _TXIF 0064  
                         _SYNC 04C4                           _main 06A9                           _loop 06BD  
                         btemp 007E                           start 0000                  __CFG_MCLRE$ON 0000  
                        ?_main 0070                          ?_loop 0070                  __CFG_WDTE$OFF 0000  
                        _T2CON 0012                          _RCREG 001A                          _SPBRG 0099  
                        _TXREG 0019                          _delay 06D3                __end_of_pinMode 07FE  
                        _setup 06A3                 __CFG_BOREN$OFF 0000                          pclath 000A  
                        status 0003                          wtemp0 007E           __end_of_digitalWrite 0777  
              __initialization 07FE                   __end_of_main 06AF                   __end_of_loop 06D3  
                       ??_main 0074                         ??_loop 0074   __end_of_ConfiguracionInicial 06BD  
                       ?_delay 0070                         _CCPR1L 0015                         ?_setup 0070  
                       _TRISB1 0431                         _TRISB2 0432                 __CFG_PWRTE$OFF 0000  
                       delay@i 0073                      ??_pinMode 0071        __end_of__initialization 07FE  
               __pcstackCOMMON 0070                  __end_of_delay 06F0                  __end_of_setup 06A9  
                      ??_delay 0072                        ??_setup 0074          __size_of_digitalWrite 0087  
         _ConfiguracionInicial 06AF                     __pmaintext 06A9                        _CCP1CON 0017  
                 _digitalWrite 06F0                     __stringtab 001D          ?_ConfiguracionInicial 0070  
                      __ptext1 06A3                        __ptext2 0777                        __ptext3 06BD  
                      __ptext4 06F0                        __ptext5 06D3                        __ptext6 06AF  
                      _pinMode 0777           end_of_initialization 07FE                      _PORTAbits 0005  
                    _PORTBbits 0006                      _TRISAbits 0085                      _TRISBbits 0086  
       ??_ConfiguracionInicial 0070            start_initialization 07FE                    __end_of_LED 0024  
                    ___latbits 0000                     pinMode@dir 0070                     pinMode@pin 0073  
                    __pstrings 001D                      __pswtext1 0001                      __pswtext2 000F  
                     ?_pinMode 0070                 __size_of_delay 001D                 __size_of_setup 0006  
                  __stringbase 0022             __end_of__stringtab 0023               __size_of_pinMode 0087  
                __size_of_main 0006                  __size_of_loop 0016                    delay@millis 0070  
__size_of_ConfiguracionInicial 000E                  ?_digitalWrite 0070              digitalWrite@value 0070  
                    stringcode 001D                 ??_digitalWrite 0071                       stringdir 001D  
                     stringtab 001D             __CFG_FOSC$INTOSCIO 0000                digitalWrite@pin 0073  
